target datalayout = "e-m:e-p270:32:32-p271:32:32-p272:64:64-i64:64-i128:128-f80:128-n8:16:32:64-S128"
target triple = "x86_64-pc-linux-gnu"

%struct.Abc_Frame_t_ = type { ptr, ptr, ptr, ptr, ptr, ptr, ptr, ptr, ptr, ptr, i32, i32, i32, i32, i32, ptr, float, float, i32, i32, ptr, ptr, ptr, double, double, ptr, ptr, ptr, ptr, ptr, ptr, ptr, ptr, ptr, ptr, ptr, ptr, float, ptr, i32, ptr, ptr, ptr, ptr, ptr, i32, i32, i32, i32, i32, i32, ptr, ptr, ptr, ptr, ptr, ptr, i32, i32, ptr, ptr, ptr, ptr, ptr, ptr, ptr, ptr, ptr, ptr, ptr, ptr, ptr, ptr, ptr, ptr, ptr, ptr, ptr, ptr, ptr, ptr, ptr, ptr, ptr, ptr, ptr, ptr, ptr, ptr }
%struct.Vec_Int_t_ = type { i32, i32, ptr }

@globalUtilOptind = external global i32, align 4
@.str.25 = private unnamed_addr constant [2 x i8] c"r\00", align 1
@.str.26 = private unnamed_addr constant [30 x i8] c"Cannot open input file \22%s\22. \00", align 1
@.str.30 = private unnamed_addr constant [5 x i8] c".ndr\00", align 1
@.str.31 = private unnamed_addr constant [19 x i8] c"Did you mean \22%s\22?\00", align 1
@.str.32 = private unnamed_addr constant [2 x i8] c"\0A\00", align 1
@.str.41 = private unnamed_addr constant [4 x i8] c"yes\00", align 1
@.str.42 = private unnamed_addr constant [3 x i8] c"no\00", align 1
@.str.45 = private unnamed_addr constant [62 x i8] c"\09-v     : toggle printing verbose information [default = %s]\0A\00", align 1
@.str.46 = private unnamed_addr constant [35 x i8] c"\09-h     : print the command usage\0A\00", align 1
@.str.166 = private unnamed_addr constant [6 x i8] c"isdvh\00", align 1
@.str.167 = private unnamed_addr constant [59 x i8] c"Transforming NDR into internal represnetation has failed.\0A\00", align 1
@.str.168 = private unnamed_addr constant [75 x i8] c"Abc_CommandRetime(): Input file name should be given on the command line.\0A\00", align 1
@.str.169 = private unnamed_addr constant [26 x i8] c"usage: %%retime [-isdvh]\0A\00", align 1
@.str.170 = private unnamed_addr constant [48 x i8] c"\09         performs retiming for the NDR design\0A\00", align 1
@.str.171 = private unnamed_addr constant [61 x i8] c"\09-i     : toggle ignoring delays of IO paths [default = %s]\0A\00", align 1
@.str.172 = private unnamed_addr constant [55 x i8] c"\09-s     : toggle printing simple nodes [default = %s]\0A\00", align 1
@.str.173 = private unnamed_addr constant [64 x i8] c"\09-d     : toggle dumping the network in Verilog [default = %s]\0A\00", align 1

; Function Attrs: inlinehint nounwind uwtable
define internal void @Vec_IntFreeP(ptr noundef %0) #2 {
  %2 = alloca ptr, align 8
  store ptr %0, ptr %2, align 8, !tbaa !136
  %3 = load ptr, ptr %2, align 8, !tbaa !136
  %4 = load ptr, ptr %3, align 8, !tbaa !111
  %5 = icmp eq ptr %4, null
  br i1 %5, label %6, label %7

6:                                                ; preds = %1
  br label %32

7:                                                ; preds = %1
  %8 = load ptr, ptr %2, align 8, !tbaa !136
  %9 = load ptr, ptr %8, align 8, !tbaa !111
  %10 = getelementptr inbounds nuw %struct.Vec_Int_t_, ptr %9, i32 0, i32 2
  %11 = load ptr, ptr %10, align 8, !tbaa !138
  %12 = icmp ne ptr %11, null
  br i1 %12, label %13, label %21

13:                                               ; preds = %7
  %14 = load ptr, ptr %2, align 8, !tbaa !136
  %15 = load ptr, ptr %14, align 8, !tbaa !111
  %16 = getelementptr inbounds nuw %struct.Vec_Int_t_, ptr %15, i32 0, i32 2
  %17 = load ptr, ptr %16, align 8, !tbaa !138
  call void @free(ptr noundef %17) #12
  %18 = load ptr, ptr %2, align 8, !tbaa !136
  %19 = load ptr, ptr %18, align 8, !tbaa !111
  %20 = getelementptr inbounds nuw %struct.Vec_Int_t_, ptr %19, i32 0, i32 2
  store ptr null, ptr %20, align 8, !tbaa !138
  br label %22

21:                                               ; preds = %7
  br label %22

22:                                               ; preds = %21, %13
  %23 = load ptr, ptr %2, align 8, !tbaa !136
  %24 = load ptr, ptr %23, align 8, !tbaa !111
  %25 = icmp ne ptr %24, null
  br i1 %25, label %26, label %30

26:                                               ; preds = %22
  %27 = load ptr, ptr %2, align 8, !tbaa !136
  %28 = load ptr, ptr %27, align 8, !tbaa !111
  call void @free(ptr noundef %28) #12
  %29 = load ptr, ptr %2, align 8, !tbaa !136
  store ptr null, ptr %29, align 8, !tbaa !111
  br label %31

30:                                               ; preds = %22
  br label %31

31:                                               ; preds = %30, %26
  br label %32

32:                                               ; preds = %31, %6
  ret void
}

; Function Attrs: inlinehint nounwind uwtable
define internal ptr @Vec_IntReleaseNewArray(ptr noundef %0) #2 {
  %2 = alloca ptr, align 8
  %3 = alloca ptr, align 8
  store ptr %0, ptr %2, align 8, !tbaa !111
  call void @llvm.lifetime.start.p0(i64 8, ptr %3) #12
  %4 = load ptr, ptr %2, align 8, !tbaa !111
  %5 = getelementptr inbounds nuw %struct.Vec_Int_t_, ptr %4, i32 0, i32 1
  %6 = load i32, ptr %5, align 4, !tbaa !135
  %7 = add nsw i32 %6, 1
  %8 = sext i32 %7 to i64
  %9 = mul i64 4, %8
  %10 = call noalias ptr @malloc(i64 noundef %9) #14
  store ptr %10, ptr %3, align 8, !tbaa !145
  %11 = load ptr, ptr %2, align 8, !tbaa !111
  %12 = getelementptr inbounds nuw %struct.Vec_Int_t_, ptr %11, i32 0, i32 1
  %13 = load i32, ptr %12, align 4, !tbaa !135
  %14 = add nsw i32 %13, 1
  %15 = load ptr, ptr %3, align 8, !tbaa !145
  %16 = getelementptr inbounds i32, ptr %15, i64 0
  store i32 %14, ptr %16, align 4, !tbaa !8
  %17 = load ptr, ptr %3, align 8, !tbaa !145
  %18 = getelementptr inbounds i32, ptr %17, i64 1
  %19 = load ptr, ptr %2, align 8, !tbaa !111
  %20 = getelementptr inbounds nuw %struct.Vec_Int_t_, ptr %19, i32 0, i32 2
  %21 = load ptr, ptr %20, align 8, !tbaa !138
  %22 = load ptr, ptr %2, align 8, !tbaa !111
  %23 = getelementptr inbounds nuw %struct.Vec_Int_t_, ptr %22, i32 0, i32 1
  %24 = load i32, ptr %23, align 4, !tbaa !135
  %25 = sext i32 %24 to i64
  %26 = mul i64 4, %25
  call void @llvm.memcpy.p0.p0.i64(ptr align 4 %18, ptr align 4 %21, i64 %26, i1 false)
  %27 = load ptr, ptr %3, align 8, !tbaa !145
  call void @llvm.lifetime.end.p0(i64 8, ptr %3) #12
  ret ptr %27
}

; Function Attrs: nounwind uwtable
define internal i32 @Abc_CommandRetime(ptr noundef %0, i32 noundef %1, ptr noundef %2) #0 {
  %4 = alloca i32, align 4
  %5 = alloca ptr, align 8
  %6 = alloca i32, align 4
  %7 = alloca ptr, align 8
  %8 = alloca ptr, align 8
  %9 = alloca ptr, align 8
  %10 = alloca i32, align 4
  %11 = alloca i32, align 4
  %12 = alloca i32, align 4
  %13 = alloca i32, align 4
  %14 = alloca i32, align 4
  %15 = alloca ptr, align 8
  %16 = alloca ptr, align 8
  %17 = alloca i32, align 4
  store ptr %0, ptr %5, align 8, !tbaa !3
  store i32 %1, ptr %6, align 4, !tbaa !8
  store ptr %2, ptr %7, align 8, !tbaa !10
  call void @llvm.lifetime.start.p0(i64 8, ptr %8) #12
  call void @llvm.lifetime.start.p0(i64 8, ptr %9) #12
  store ptr null, ptr %9, align 8, !tbaa !14
  call void @llvm.lifetime.start.p0(i64 4, ptr %10) #12
  store i32 0, ptr %10, align 4, !tbaa !8
  call void @llvm.lifetime.start.p0(i64 4, ptr %11) #12
  store i32 0, ptr %11, align 4, !tbaa !8
  call void @llvm.lifetime.start.p0(i64 4, ptr %12) #12
  call void @llvm.lifetime.start.p0(i64 4, ptr %13) #12
  store i32 0, ptr %13, align 4, !tbaa !8
  call void @llvm.lifetime.start.p0(i64 4, ptr %14) #12
  store i32 0, ptr %14, align 4, !tbaa !8
  call void (...) @Extra_UtilGetoptReset()
  br label %18

18:                                               ; preds = %39, %3
  %19 = load i32, ptr %6, align 4, !tbaa !8
  %20 = load ptr, ptr %7, align 8, !tbaa !10
  %21 = call i32 @Extra_UtilGetopt(i32 noundef %19, ptr noundef %20, ptr noundef @.str.166)
  store i32 %21, ptr %12, align 4, !tbaa !8
  %22 = icmp ne i32 %21, -1
  br i1 %22, label %23, label %40

23:                                               ; preds = %18
  %24 = load i32, ptr %12, align 4, !tbaa !8
  switch i32 %24, label %38 [
    i32 105, label %25
    i32 115, label %28
    i32 100, label %31
    i32 118, label %34
    i32 104, label %37
  ]

25:                                               ; preds = %23
  %26 = load i32, ptr %10, align 4, !tbaa !8
  %27 = xor i32 %26, 1
  store i32 %27, ptr %10, align 4, !tbaa !8
  br label %39

28:                                               ; preds = %23
  %29 = load i32, ptr %11, align 4, !tbaa !8
  %30 = xor i32 %29, 1
  store i32 %30, ptr %11, align 4, !tbaa !8
  br label %39

31:                                               ; preds = %23
  %32 = load i32, ptr %13, align 4, !tbaa !8
  %33 = xor i32 %32, 1
  store i32 %33, ptr %13, align 4, !tbaa !8
  br label %39

34:                                               ; preds = %23
  %35 = load i32, ptr %14, align 4, !tbaa !8
  %36 = xor i32 %35, 1
  store i32 %36, ptr %14, align 4, !tbaa !8
  br label %39

37:                                               ; preds = %23
  br label %116

38:                                               ; preds = %23
  br label %116

39:                                               ; preds = %34, %31, %28, %25
  br label %18, !llvm.loop !113

40:                                               ; preds = %18
  %41 = load ptr, ptr %5, align 8, !tbaa !3
  %42 = getelementptr inbounds nuw %struct.Abc_Frame_t_, ptr %41, i32 0, i32 86
  %43 = load ptr, ptr %42, align 8, !tbaa !114
  %44 = icmp ne ptr %43, null
  br i1 %44, label %45, label %84

45:                                               ; preds = %40
  call void @llvm.lifetime.start.p0(i64 8, ptr %15) #12
  call void @llvm.lifetime.start.p0(i64 8, ptr %16) #12
  %46 = load ptr, ptr %5, align 8, !tbaa !3
  %47 = getelementptr inbounds nuw %struct.Abc_Frame_t_, ptr %46, i32 0, i32 86
  %48 = load ptr, ptr %47, align 8, !tbaa !114
  %49 = load i32, ptr %13, align 4, !tbaa !8
  %50 = call ptr @Wln_NtkFromNdr(ptr noundef %48, i32 noundef %49)
  store ptr %50, ptr %16, align 8, !tbaa !115
  %51 = load ptr, ptr %16, align 8, !tbaa !115
  call void @Wln_NtkRetimeCreateDelayInfo(ptr noundef %51)
  %52 = load ptr, ptr %16, align 8, !tbaa !115
  %53 = icmp eq ptr %52, null
  br i1 %53, label %54, label %56

54:                                               ; preds = %45
  %55 = call i32 (ptr, ...) @printf(ptr noundef @.str.167)
  store i32 0, ptr %4, align 4
  store i32 1, ptr %17, align 4
  br label %83

56:                                               ; preds = %45
  %57 = load ptr, ptr %16, align 8, !tbaa !115
  %58 = load i32, ptr %10, align 4, !tbaa !8
  %59 = load i32, ptr %11, align 4, !tbaa !8
  %60 = load i32, ptr %14, align 4, !tbaa !8
  %61 = call ptr @Wln_NtkRetime(ptr noundef %57, i32 noundef %58, i32 noundef %59, i32 noundef %60)
  store ptr %61, ptr %15, align 8, !tbaa !111
  %62 = load ptr, ptr %16, align 8, !tbaa !115
  call void @Wln_NtkFree(ptr noundef %62)
  %63 = load ptr, ptr %5, align 8, !tbaa !3
  %64 = getelementptr inbounds nuw %struct.Abc_Frame_t_, ptr %63, i32 0, i32 87
  %65 = load ptr, ptr %64, align 8, !tbaa !117
  %66 = icmp ne ptr %65, null
  br i1 %66, label %67, label %73

67:                                               ; preds = %56
  %68 = load ptr, ptr %5, align 8, !tbaa !3
  %69 = getelementptr inbounds nuw %struct.Abc_Frame_t_, ptr %68, i32 0, i32 87
  %70 = load ptr, ptr %69, align 8, !tbaa !117
  call void @free(ptr noundef %70) #12
  %71 = load ptr, ptr %5, align 8, !tbaa !3
  %72 = getelementptr inbounds nuw %struct.Abc_Frame_t_, ptr %71, i32 0, i32 87
  store ptr null, ptr %72, align 8, !tbaa !117
  br label %74

73:                                               ; preds = %56
  br label %74

74:                                               ; preds = %73, %67
  %75 = load ptr, ptr %15, align 8, !tbaa !111
  %76 = icmp ne ptr %75, null
  br i1 %76, label %77, label %82

77:                                               ; preds = %74
  %78 = load ptr, ptr %15, align 8, !tbaa !111
  %79 = call ptr @Vec_IntReleaseNewArray(ptr noundef %78)
  %80 = load ptr, ptr %5, align 8, !tbaa !3
  %81 = getelementptr inbounds nuw %struct.Abc_Frame_t_, ptr %80, i32 0, i32 87
  store ptr %79, ptr %81, align 8, !tbaa !117
  br label %82

82:                                               ; preds = %77, %74
  call void @Vec_IntFreeP(ptr noundef %15)
  store i32 0, ptr %4, align 4
  store i32 1, ptr %17, align 4
  br label %83

83:                                               ; preds = %82, %54
  call void @llvm.lifetime.end.p0(i64 8, ptr %16) #12
  call void @llvm.lifetime.end.p0(i64 8, ptr %15) #12
  br label %130

84:                                               ; preds = %40
  %85 = load i32, ptr %6, align 4, !tbaa !8
  %86 = load i32, ptr @globalUtilOptind, align 4, !tbaa !8
  %87 = add nsw i32 %86, 1
  %88 = icmp ne i32 %85, %87
  br i1 %88, label %89, label %91

89:                                               ; preds = %84
  %90 = call i32 (ptr, ...) @printf(ptr noundef @.str.168)
  store i32 0, ptr %4, align 4
  store i32 1, ptr %17, align 4
  br label %130

91:                                               ; preds = %84
  %92 = load ptr, ptr %7, align 8, !tbaa !10
  %93 = load i32, ptr @globalUtilOptind, align 4, !tbaa !8
  %94 = sext i32 %93 to i64
  %95 = getelementptr inbounds ptr, ptr %92, i64 %94
  %96 = load ptr, ptr %95, align 8, !tbaa !14
  store ptr %96, ptr %9, align 8, !tbaa !14
  %97 = load ptr, ptr %9, align 8, !tbaa !14
  %98 = call noalias ptr @fopen(ptr noundef %97, ptr noundef @.str.25)
  store ptr %98, ptr %8, align 8, !tbaa !18
  %99 = icmp eq ptr %98, null
  br i1 %99, label %100, label %108

100:                                              ; preds = %91
  %101 = load ptr, ptr %9, align 8, !tbaa !14
  call void (i32, ptr, ...) @Abc_Print(i32 noundef 1, ptr noundef @.str.26, ptr noundef %101)
  %102 = load ptr, ptr %9, align 8, !tbaa !14
  %103 = call ptr @Extra_FileGetSimilarName(ptr noundef %102, ptr noundef @.str.30, ptr noundef null, ptr noundef null, ptr noundef null, ptr noundef null)
  store ptr %103, ptr %9, align 8, !tbaa !14
  %104 = icmp ne ptr %103, null
  br i1 %104, label %105, label %107

105:                                              ; preds = %100
  %106 = load ptr, ptr %9, align 8, !tbaa !14
  call void (i32, ptr, ...) @Abc_Print(i32 noundef 1, ptr noundef @.str.31, ptr noundef %106)
  br label %107

107:                                              ; preds = %105, %100
  call void (i32, ptr, ...) @Abc_Print(i32 noundef 1, ptr noundef @.str.32)
  store i32 0, ptr %4, align 4
  store i32 1, ptr %17, align 4
  br label %130

108:                                              ; preds = %91
  %109 = load ptr, ptr %8, align 8, !tbaa !18
  %110 = call i32 @fclose(ptr noundef %109)
  %111 = load ptr, ptr %9, align 8, !tbaa !14
  %112 = load i32, ptr %10, align 4, !tbaa !8
  %113 = load i32, ptr %11, align 4, !tbaa !8
  %114 = load i32, ptr %13, align 4, !tbaa !8
  %115 = load i32, ptr %14, align 4, !tbaa !8
  call void @Wln_NtkRetimeTest(ptr noundef %111, i32 noundef %112, i32 noundef %113, i32 noundef %114, i32 noundef %115)
  store i32 0, ptr %4, align 4
  store i32 1, ptr %17, align 4
  br label %130

116:                                              ; preds = %38, %37
  call void (i32, ptr, ...) @Abc_Print(i32 noundef -2, ptr noundef @.str.169)
  call void (i32, ptr, ...) @Abc_Print(i32 noundef -2, ptr noundef @.str.170)
  %117 = load i32, ptr %10, align 4, !tbaa !8
  %118 = icmp ne i32 %117, 0
  %119 = select i1 %118, ptr @.str.41, ptr @.str.42
  call void (i32, ptr, ...) @Abc_Print(i32 noundef -2, ptr noundef @.str.171, ptr noundef %119)
  %120 = load i32, ptr %11, align 4, !tbaa !8
  %121 = icmp ne i32 %120, 0
  %122 = xor i1 %121, true
  %123 = select i1 %122, ptr @.str.41, ptr @.str.42
  call void (i32, ptr, ...) @Abc_Print(i32 noundef -2, ptr noundef @.str.172, ptr noundef %123)
  %124 = load i32, ptr %13, align 4, !tbaa !8
  %125 = icmp ne i32 %124, 0
  %126 = select i1 %125, ptr @.str.41, ptr @.str.42
  call void (i32, ptr, ...) @Abc_Print(i32 noundef -2, ptr noundef @.str.173, ptr noundef %126)
  %127 = load i32, ptr %14, align 4, !tbaa !8
  %128 = icmp ne i32 %127, 0
  %129 = select i1 %128, ptr @.str.41, ptr @.str.42
  call void (i32, ptr, ...) @Abc_Print(i32 noundef -2, ptr noundef @.str.45, ptr noundef %129)
  call void (i32, ptr, ...) @Abc_Print(i32 noundef -2, ptr noundef @.str.46)
  store i32 1, ptr %4, align 4
  store i32 1, ptr %17, align 4
  br label %130

130:                                              ; preds = %116, %108, %107, %89, %83
  call void @llvm.lifetime.end.p0(i64 4, ptr %14) #12
  call void @llvm.lifetime.end.p0(i64 4, ptr %13) #12
  call void @llvm.lifetime.end.p0(i64 4, ptr %12) #12
  call void @llvm.lifetime.end.p0(i64 4, ptr %11) #12
  call void @llvm.lifetime.end.p0(i64 4, ptr %10) #12
  call void @llvm.lifetime.end.p0(i64 8, ptr %9) #12
  call void @llvm.lifetime.end.p0(i64 8, ptr %8) #12
  %131 = load i32, ptr %4, align 4
  ret i32 %131
}