; Function Attrs: nounwind uwtable
define internal range(i32 0, 2) i32 @Abc_CommandRetime(ptr noundef captures(none) %0, i32 noundef %1, ptr noundef %2) #0 {
  tail call void (...) @Extra_UtilGetoptReset() #17
  br label %.outer

.outer:                                           ; preds = %6, %3
  %.043.ph = phi i32 [ %7, %6 ], [ 0, %3 ]
  %.041.ph = phi i32 [ %.041.ph80, %6 ], [ 0, %3 ]
  %.039.ph = phi i32 [ %.039.ph84, %6 ], [ 0, %3 ]
  %.037.ph = phi i32 [ %.037, %6 ], [ 0, %3 ]
  br label %.outer79

.outer79:                                         ; preds = %.outer, %8
  %.041.ph80 = phi i32 [ %.041.ph, %.outer ], [ %9, %8 ]
  %.039.ph81 = phi i32 [ %.039.ph, %.outer ], [ %.039.ph84, %8 ]
  %.037.ph82 = phi i32 [ %.037.ph, %.outer ], [ %.037, %8 ]
  br label %.outer83

.outer83:                                         ; preds = %.outer79, %10
  %.039.ph84 = phi i32 [ %.039.ph81, %.outer79 ], [ %11, %10 ]
  %.037.ph85 = phi i32 [ %.037.ph82, %.outer79 ], [ %.037, %10 ]
  br label %4

4:                                                ; preds = %.outer83, %12
  %.037 = phi i32 [ %13, %12 ], [ %.037.ph85, %.outer83 ]
  %5 = tail call i32 @Extra_UtilGetopt(i32 noundef %1, ptr noundef %2, ptr noundef nonnull @.str.166) #17
  switch i32 %5, label %54 [
    i32 -1, label %14
    i32 105, label %6
    i32 115, label %8
    i32 100, label %10
    i32 118, label %12
  ]

6:                                                ; preds = %4
  %7 = xor i32 %.043.ph, 1
  br label %.outer, !llvm.loop !100

8:                                                ; preds = %4
  %9 = xor i32 %.041.ph80, 1
  br label %.outer79, !llvm.loop !100

10:                                               ; preds = %4
  %11 = xor i32 %.039.ph84, 1
  br label %.outer83, !llvm.loop !100

12:                                               ; preds = %4
  %13 = xor i32 %.037, 1
  br label %4, !llvm.loop !100

14:                                               ; preds = %4
  %15 = getelementptr inbounds nuw i8, ptr %0, i64 624
  %16 = load ptr, ptr %15, align 8, !tbaa !101
  %.not50 = icmp eq ptr %16, null
  br i1 %.not50, label %38, label %17

17:                                               ; preds = %14
  %18 = tail call ptr @Wln_NtkFromNdr(ptr noundef nonnull %16, i32 noundef %.039.ph84) #17
  tail call void @Wln_NtkRetimeCreateDelayInfo(ptr noundef %18) #17
  %19 = icmp eq ptr %18, null
  br i1 %19, label %20, label %21

20:                                               ; preds = %17
  %puts55 = tail call i32 @puts(ptr nonnull dereferenceable(1) @str.4)
  br label %Vec_IntFreeP.exit

21:                                               ; preds = %17
  %22 = tail call ptr @Wln_NtkRetime(ptr noundef nonnull %18, i32 noundef %.043.ph, i32 noundef %.041.ph80, i32 noundef %.037) #17
  tail call void @Wln_NtkFree(ptr noundef nonnull %18) #17
  %23 = getelementptr inbounds nuw i8, ptr %0, i64 632
  %24 = load ptr, ptr %23, align 8, !tbaa !102
  %.not53 = icmp eq ptr %24, null
  br i1 %.not53, label %26, label %25

25:                                               ; preds = %21
  tail call void @free(ptr noundef nonnull %24) #17
  store ptr null, ptr %23, align 8, !tbaa !102
  br label %26

26:                                               ; preds = %21, %25
  %.not54 = icmp eq ptr %22, null
  br i1 %.not54, label %Vec_IntFreeP.exit, label %27

27:                                               ; preds = %26
  %28 = getelementptr i8, ptr %22, i64 4
  %.val = load i32, ptr %28, align 4, !tbaa !37
  %29 = getelementptr i8, ptr %22, i64 8
  %.val60 = load ptr, ptr %29, align 8, !tbaa !103
  %30 = add nsw i32 %.val, 1
  %31 = sext i32 %30 to i64
  %32 = shl nsw i64 %31, 2
  %33 = tail call noalias ptr @malloc(i64 noundef %32) #19
  store i32 %30, ptr %33, align 4, !tbaa !5
  %34 = getelementptr inbounds nuw i8, ptr %33, i64 4
  %35 = sext i32 %.val to i64
  %36 = shl nsw i64 %35, 2
  tail call void @llvm.memcpy.p0.p0.i64(ptr nonnull align 4 %34, ptr readonly align 4 %.val60, i64 %36, i1 false)
  store ptr %33, ptr %23, align 8, !tbaa !102
  %.not.i = icmp eq ptr %.val60, null
  br i1 %.not.i, label %37, label %.thread.i

.thread.i:                                        ; preds = %27
  tail call void @free(ptr noundef nonnull %.val60) #17
  br label %37

37:                                               ; preds = %.thread.i, %27
  tail call void @free(ptr noundef nonnull %22) #17
  br label %Vec_IntFreeP.exit

38:                                               ; preds = %14
  %39 = load i32, ptr @globalUtilOptind, align 4, !tbaa !5
  %40 = add nsw i32 %39, 1
  %.not51 = icmp eq i32 %1, %40
  br i1 %.not51, label %42, label %41

41:                                               ; preds = %38
  %puts = tail call i32 @puts(ptr nonnull dereferenceable(1) @str.3)
  br label %Vec_IntFreeP.exit

42:                                               ; preds = %38
  %43 = sext i32 %39 to i64
  %44 = getelementptr inbounds ptr, ptr %2, i64 %43
  %45 = load ptr, ptr %44, align 8, !tbaa !9
  %46 = tail call noalias ptr @fopen(ptr noundef %45, ptr noundef nonnull @.str.25)
  %47 = icmp eq ptr %46, null
  br i1 %47, label %48, label %52

48:                                               ; preds = %42
  tail call void (i32, ptr, ...) @Abc_Print(i32 noundef 1, ptr noundef nonnull @.str.26, ptr noundef %45)
  %49 = tail call ptr @Extra_FileGetSimilarName(ptr noundef %45, ptr noundef nonnull @.str.30, ptr noundef null, ptr noundef null, ptr noundef null, ptr noundef null) #17
  %.not52 = icmp eq ptr %49, null
  br i1 %.not52, label %51, label %50

50:                                               ; preds = %48
  tail call void (i32, ptr, ...) @Abc_Print(i32 noundef 1, ptr noundef nonnull @.str.31, ptr noundef nonnull %49)
  br label %51

51:                                               ; preds = %50, %48
  tail call void (i32, ptr, ...) @Abc_Print(i32 noundef 1, ptr noundef nonnull @.str.32)
  br label %Vec_IntFreeP.exit

52:                                               ; preds = %42
  %53 = tail call i32 @fclose(ptr noundef nonnull %46)
  tail call void @Wln_NtkRetimeTest(ptr noundef %45, i32 noundef %.043.ph, i32 noundef %.041.ph80, i32 noundef %.039.ph84, i32 noundef %.037) #17
  br label %Vec_IntFreeP.exit

54:                                               ; preds = %4
  tail call void (i32, ptr, ...) @Abc_Print(i32 noundef -2, ptr noundef nonnull @.str.169)
  tail call void (i32, ptr, ...) @Abc_Print(i32 noundef -2, ptr noundef nonnull @.str.170)
  %.not56 = icmp eq i32 %.043.ph, 0
  %55 = select i1 %.not56, ptr @.str.42, ptr @.str.41
  tail call void (i32, ptr, ...) @Abc_Print(i32 noundef -2, ptr noundef nonnull @.str.171, ptr noundef nonnull %55)
  %.not57 = icmp eq i32 %.041.ph80, 0
  %56 = select i1 %.not57, ptr @.str.41, ptr @.str.42
  tail call void (i32, ptr, ...) @Abc_Print(i32 noundef -2, ptr noundef nonnull @.str.172, ptr noundef nonnull %56)
  %.not58 = icmp eq i32 %.039.ph84, 0
  %57 = select i1 %.not58, ptr @.str.42, ptr @.str.41
  tail call void (i32, ptr, ...) @Abc_Print(i32 noundef -2, ptr noundef nonnull @.str.173, ptr noundef nonnull %57)
  %.not59 = icmp eq i32 %.037, 0
  %58 = select i1 %.not59, ptr @.str.42, ptr @.str.41
  tail call void (i32, ptr, ...) @Abc_Print(i32 noundef -2, ptr noundef nonnull @.str.45, ptr noundef nonnull %58)
  tail call void (i32, ptr, ...) @Abc_Print(i32 noundef -2, ptr noundef nonnull @.str.46)
  br label %Vec_IntFreeP.exit

Vec_IntFreeP.exit:                                ; preds = %26, %20, %37, %54, %52, %51, %41
  %.1 = phi i32 [ 1, %54 ], [ 0, %41 ], [ 0, %51 ], [ 0, %52 ], [ 0, %37 ], [ 0, %20 ], [ 0, %26 ]
  ret i32 %.1
}